target datalayout = "e-m:e-p270:32:32-p271:32:32-p272:64:64-i64:64-i128:128-f80:128-n8:16:32:64-S128"
target triple = "x86_64-pc-linux-gnu"

%struct.dt_lib_module_t = type { %struct.dt_action_t, ptr, ptr, ptr, ptr, ptr, ptr, ptr, ptr, ptr, ptr, ptr, ptr, ptr, ptr, ptr, ptr, ptr, ptr, ptr, ptr, ptr, ptr, ptr, ptr, ptr, ptr, ptr, ptr, ptr, ptr, [128 x i8], ptr, ptr, i32, ptr, ptr, ptr, i32 }
%struct.dt_action_t = type { i32, ptr, ptr, ptr, ptr, ptr }
%struct.dt_lib_tagging_t = type { [1024 x i8], ptr, ptr, ptr, ptr, ptr, ptr, ptr, ptr, ptr, ptr, ptr, ptr, ptr, ptr, ptr, ptr, ptr, ptr, ptr, ptr, ptr, i32, i32, i32, i32, i32, ptr, ptr, %struct.anon, i32 }
%struct.anon = type { ptr, ptr, ptr, i32, i32, i32, i32, i32 }

; Function Attrs: nounwind uwtable
define internal void @_event_dnd_begin(ptr noundef %0, ptr noundef %1, ptr noundef %2) #0 {
  %4 = alloca ptr, align 8
  %5 = alloca ptr, align 8
  %6 = alloca ptr, align 8
  %7 = alloca ptr, align 8
  %8 = alloca ptr, align 8
  %9 = alloca ptr, align 8
  store ptr %0, ptr %4, align 8, !tbaa !108
  store ptr %1, ptr %5, align 8, !tbaa !169
  store ptr %2, ptr %6, align 8, !tbaa !6
  call void @llvm.lifetime.start.p0(i64 8, ptr %7) #11
  %10 = load ptr, ptr %6, align 8, !tbaa !6
  %11 = getelementptr inbounds nuw %struct.dt_lib_module_t, ptr %10, i32 0, i32 30
  %12 = load ptr, ptr %11, align 8, !tbaa !11
  store ptr %12, ptr %7, align 8, !tbaa !19
  call void @llvm.lifetime.start.p0(i64 8, ptr %8) #11
  %13 = load ptr, ptr %4, align 8, !tbaa !108
  %14 = call i64 @gtk_tree_view_get_type() #12
  %15 = call ptr @g_type_check_instance_cast(ptr noundef %13, i64 noundef %14)
  store ptr %15, ptr %8, align 8, !tbaa !35
  %16 = load ptr, ptr %7, align 8, !tbaa !19
  %17 = getelementptr inbounds nuw %struct.dt_lib_tagging_t, ptr %16, i32 0, i32 29
  %18 = getelementptr inbounds nuw %struct.anon, ptr %17, i32 0, i32 1
  %19 = load ptr, ptr %18, align 8, !tbaa !123
  %20 = icmp ne ptr %19, null
  br i1 %20, label %21, label %41

21:                                               ; preds = %3
  call void @llvm.lifetime.start.p0(i64 8, ptr %9) #11
  %22 = load ptr, ptr %8, align 8, !tbaa !35
  %23 = load ptr, ptr %7, align 8, !tbaa !19
  %24 = getelementptr inbounds nuw %struct.dt_lib_tagging_t, ptr %23, i32 0, i32 29
  %25 = getelementptr inbounds nuw %struct.anon, ptr %24, i32 0, i32 1
  %26 = load ptr, ptr %25, align 8, !tbaa !123
  %27 = call ptr @gtk_tree_view_create_row_drag_icon(ptr noundef %22, ptr noundef %26)
  store ptr %27, ptr %9, align 8, !tbaa !173
  %28 = load ptr, ptr %5, align 8, !tbaa !169
  %29 = load ptr, ptr %9, align 8, !tbaa !173
  call void @gtk_drag_set_icon_surface(ptr noundef %28, ptr noundef %29)
  %30 = load ptr, ptr %9, align 8, !tbaa !173
  call void @cairo_surface_destroy(ptr noundef %30)
  %31 = load ptr, ptr %7, align 8, !tbaa !19
  %32 = getelementptr inbounds nuw %struct.dt_lib_tagging_t, ptr %31, i32 0, i32 29
  %33 = getelementptr inbounds nuw %struct.anon, ptr %32, i32 0, i32 1
  %34 = load ptr, ptr %33, align 8, !tbaa !123
  call void @gtk_tree_path_free(ptr noundef %34)
  %35 = load ptr, ptr %7, align 8, !tbaa !19
  %36 = getelementptr inbounds nuw %struct.dt_lib_tagging_t, ptr %35, i32 0, i32 29
  %37 = getelementptr inbounds nuw %struct.anon, ptr %36, i32 0, i32 1
  store ptr null, ptr %37, align 8, !tbaa !123
  %38 = load ptr, ptr %7, align 8, !tbaa !19
  %39 = getelementptr inbounds nuw %struct.dt_lib_tagging_t, ptr %38, i32 0, i32 29
  %40 = getelementptr inbounds nuw %struct.anon, ptr %39, i32 0, i32 7
  store i32 1, ptr %40, align 8, !tbaa !128
  call void @llvm.lifetime.end.p0(i64 8, ptr %9) #11
  br label %41

41:                                               ; preds = %21, %3
  call void @llvm.lifetime.end.p0(i64 8, ptr %8) #11
  call void @llvm.lifetime.end.p0(i64 8, ptr %7) #11
  ret void
}