; Function Attrs: nounwind uwtable
define internal void @_event_dnd_begin(ptr noundef %0, ptr noundef %1, ptr noundef readonly captures(none) %2) #1 {
  %4 = getelementptr inbounds nuw i8, ptr %2, i64 280
  %5 = load ptr, ptr %4, align 8, !tbaa !6
  %6 = tail call i64 @gtk_tree_view_get_type() #17
  %7 = tail call ptr @g_type_check_instance_cast(ptr noundef %0, i64 noundef %6) #16
  %8 = getelementptr inbounds nuw i8, ptr %5, i64 1240
  %9 = load ptr, ptr %8, align 8, !tbaa !134
  %.not = icmp eq ptr %9, null
  br i1 %.not, label %14, label %10

10:                                               ; preds = %3
  %11 = tail call ptr @gtk_tree_view_create_row_drag_icon(ptr noundef %7, ptr noundef nonnull %9) #16
  tail call void @gtk_drag_set_icon_surface(ptr noundef %1, ptr noundef %11) #16
  tail call void @cairo_surface_destroy(ptr noundef %11) #16
  %12 = load ptr, ptr %8, align 8, !tbaa !134
  tail call void @gtk_tree_path_free(ptr noundef %12) #16
  store ptr null, ptr %8, align 8, !tbaa !134
  %13 = getelementptr inbounds nuw i8, ptr %5, i64 1272
  store i32 1, ptr %13, align 8, !tbaa !107
  br label %14

14:                                               ; preds = %10, %3
  ret void
}